target datalayout = "e-m:e-p270:32:32-p271:32:32-p272:64:64-i64:64-i128:128-f80:128-n8:16:32:64-S128"
target triple = "x86_64-pc-linux-gnu"

%class.PhaseValues = type { %class.PhaseTransform, i8, ptr, ptr, [137 x ptr], [137 x ptr], [20 x ptr] }
%class.PhaseTransform = type { ptr, %class.Phase }
%class.Phase = type { i32, ptr }
%class.Node = type <{ ptr, ptr, ptr, i32, i32, i32, i32, i32, i32, i32, [4 x i8] }>
%class.Type_Array = type { ptr, i32, ptr }

@_ZN4Type3TOPE = external global ptr, align 8
@_ZN4Type6BOTTOME = external global ptr, align 8
@_ZN8TypeLong3ONEE = external global ptr, align 8
@_ZN8TypeLong4LONGE = external global ptr, align 8

; Function Attrs: mustprogress nounwind uwtable
define linkonce_odr hidden noundef ptr @_ZNK10Type_Array11fast_lookupEj(ptr noundef nonnull align 8 dereferenceable(24) %0, i32 noundef %1) #1 comdat align 2 {
  %3 = alloca ptr, align 8
  %4 = alloca i32, align 4
  store ptr %0, ptr %3, align 8
  store i32 %1, ptr %4, align 4
  %5 = load ptr, ptr %3, align 8
  %6 = getelementptr inbounds %class.Type_Array, ptr %5, i32 0, i32 2
  %7 = load ptr, ptr %6, align 8
  %8 = load i32, ptr %4, align 4
  %9 = zext i32 %8 to i64
  %10 = getelementptr inbounds ptr, ptr %7, i64 %9
  %11 = load ptr, ptr %10, align 8
  ret ptr %11
}

; Function Attrs: mustprogress nounwind uwtable
define linkonce_odr hidden noundef ptr @_ZNK11PhaseValues4typeEPK4Node(ptr noundef nonnull align 8 dereferenceable(2400) %0, ptr noundef %1) #1 comdat align 2 {
  %3 = alloca ptr, align 8
  %4 = alloca ptr, align 8
  %5 = alloca ptr, align 8
  store ptr %0, ptr %3, align 8
  store ptr %1, ptr %4, align 8
  %6 = load ptr, ptr %3, align 8
  %7 = getelementptr inbounds %class.PhaseValues, ptr %6, i32 0, i32 3
  %8 = load ptr, ptr %7, align 8
  %9 = load ptr, ptr %4, align 8
  %10 = getelementptr inbounds %class.Node, ptr %9, i32 0, i32 7
  %11 = load i32, ptr %10, align 8
  %12 = call noundef ptr @_ZNK10Type_Array11fast_lookupEj(ptr noundef nonnull align 8 dereferenceable(24) %8, i32 noundef %11)
  store ptr %12, ptr %5, align 8
  %13 = load ptr, ptr %5, align 8
  ret ptr %13
}

; Function Attrs: mustprogress nounwind uwtable
define linkonce_odr hidden noundef ptr @_ZNK4Node2inEj(ptr noundef nonnull align 8 dereferenceable(52) %0, i32 noundef %1) #1 comdat align 2 {
  %3 = alloca ptr, align 8
  %4 = alloca i32, align 4
  store ptr %0, ptr %3, align 8
  store i32 %1, ptr %4, align 4
  %5 = load ptr, ptr %3, align 8
  %6 = getelementptr inbounds %class.Node, ptr %5, i32 0, i32 1
  %7 = load ptr, ptr %6, align 8
  %8 = load i32, ptr %4, align 4
  %9 = zext i32 %8 to i64
  %10 = getelementptr inbounds ptr, ptr %7, i64 %9
  %11 = load ptr, ptr %10, align 8
  ret ptr %11
}

; Function Attrs: mustprogress nounwind uwtable
define hidden noundef ptr @_ZNK9UDivLNode5ValueEP8PhaseGVN(ptr noundef nonnull align 8 dereferenceable(52) %0, ptr noundef %1) unnamed_addr #1 align 2 {
  %3 = alloca ptr, align 8
  %4 = alloca ptr, align 8
  %5 = alloca ptr, align 8
  %6 = alloca ptr, align 8
  %7 = alloca ptr, align 8
  %8 = alloca ptr, align 8
  store ptr %0, ptr %4, align 8
  store ptr %1, ptr %5, align 8
  %9 = load ptr, ptr %4, align 8
  %10 = load ptr, ptr %5, align 8
  %11 = call noundef ptr @_ZNK4Node2inEj(ptr noundef nonnull align 8 dereferenceable(52) %9, i32 noundef 1)
  %12 = call noundef ptr @_ZNK11PhaseValues4typeEPK4Node(ptr noundef nonnull align 8 dereferenceable(2400) %10, ptr noundef %11)
  store ptr %12, ptr %6, align 8
  %13 = load ptr, ptr %5, align 8
  %14 = call noundef ptr @_ZNK4Node2inEj(ptr noundef nonnull align 8 dereferenceable(52) %9, i32 noundef 2)
  %15 = call noundef ptr @_ZNK11PhaseValues4typeEPK4Node(ptr noundef nonnull align 8 dereferenceable(2400) %13, ptr noundef %14)
  store ptr %15, ptr %7, align 8
  %16 = load ptr, ptr %6, align 8
  %17 = load ptr, ptr @_ZN4Type3TOPE, align 8
  %18 = icmp eq ptr %16, %17
  br i1 %18, label %19, label %21

19:                                               ; preds = %2
  %20 = load ptr, ptr @_ZN4Type3TOPE, align 8
  store ptr %20, ptr %3, align 8
  br label %57

21:                                               ; preds = %2
  %22 = load ptr, ptr %7, align 8
  %23 = load ptr, ptr @_ZN4Type3TOPE, align 8
  %24 = icmp eq ptr %22, %23
  br i1 %24, label %25, label %27

25:                                               ; preds = %21
  %26 = load ptr, ptr @_ZN4Type3TOPE, align 8
  store ptr %26, ptr %3, align 8
  br label %57

27:                                               ; preds = %21
  %28 = call noundef ptr @_ZNK4Node2inEj(ptr noundef nonnull align 8 dereferenceable(52) %9, i32 noundef 1)
  %29 = call noundef ptr @_ZNK4Node2inEj(ptr noundef nonnull align 8 dereferenceable(52) %9, i32 noundef 2)
  %30 = icmp eq ptr %28, %29
  br i1 %30, label %31, label %33

31:                                               ; preds = %27
  %32 = load ptr, ptr @_ZN8TypeLong3ONEE, align 8
  store ptr %32, ptr %3, align 8
  br label %57

33:                                               ; preds = %27
  %34 = load ptr, ptr %9, align 8
  %35 = getelementptr inbounds ptr, ptr %34, i64 5
  %36 = load ptr, ptr %35, align 8
  %37 = call noundef ptr %36(ptr noundef nonnull align 8 dereferenceable(52) %9)
  store ptr %37, ptr %8, align 8
  %38 = load ptr, ptr %6, align 8
  %39 = load ptr, ptr %8, align 8
  %40 = icmp eq ptr %38, %39
  br i1 %40, label %53, label %41

41:                                               ; preds = %33
  %42 = load ptr, ptr %7, align 8
  %43 = load ptr, ptr %8, align 8
  %44 = icmp eq ptr %42, %43
  br i1 %44, label %53, label %45

45:                                               ; preds = %41
  %46 = load ptr, ptr %6, align 8
  %47 = load ptr, ptr @_ZN4Type6BOTTOME, align 8
  %48 = icmp eq ptr %46, %47
  br i1 %48, label %53, label %49

49:                                               ; preds = %45
  %50 = load ptr, ptr %7, align 8
  %51 = load ptr, ptr @_ZN4Type6BOTTOME, align 8
  %52 = icmp eq ptr %50, %51
  br i1 %52, label %53, label %55

53:                                               ; preds = %49, %45, %41, %33
  %54 = load ptr, ptr %8, align 8
  store ptr %54, ptr %3, align 8
  br label %57

55:                                               ; preds = %49
  %56 = load ptr, ptr @_ZN8TypeLong4LONGE, align 8
  store ptr %56, ptr %3, align 8
  br label %57

57:                                               ; preds = %55, %53, %31, %25, %19
  %58 = load ptr, ptr %3, align 8
  ret ptr %58
}